(dp0
Vengine
p1
S'pdflatex'
p2
sVpackages
p3
c__builtin__
set
p4
((lp5
Vhyperref
p6
aVxcolor
p7
aVverbatim
p8
aVgeometry
p9
aVgraphicx
p10
aVlistings
p11
aVinputenc
p12
atp13
Rp14
sVfiles_with_guttermarks
p15
g4
((lp16
V/Users/Angie/Documents/MIEIC/3A2S/SDIS/practice/project2/report/./report.tex
p17
aS'report.tex'
p18
aV/Users/Angie/Documents/MIEIC/3A2S/SDIS/practice/project2/report/report.tex
p19
atp20
Rp21
sVsynctex
p22
I01
s.